(dp0
S'Physical Review E'
p1
(dp2
S'short'
p3
S'Phys. Rev. E'
p4
sS'shortest'
p5
S'PRE'
p6
ssS'Scholarpedia'
p7
(dp8
S'short'
p9
S'Scholarp.'
p10
sS'shortest'
p11
S'ScP'
p12
ssS'Physical Review A'
p13
(dp14
S'short'
p15
S'Phys. Rev. A'
p16
sS'shortest'
p17
S'PRA'
p18
ssS'Reviews of Modern Physics'
p19
(dp20
S'short'
p21
S'Rev. Mod. Phys.'
p22
sS'shortest'
p23
S'RMP'
p24
ssS'Laser {\\&} Photonics Reviews'
p25
(dp26
S'short'
p27
S'Laser Photon. Rev.'
p28
sS'shortest'
p29
S'LPR'
p30
ssS'Journal of Physics A: Mathematical and Theoretical'
p31
(dp32
S'short'
p33
S'J. Phys. A'
p34
sS'shortest'
p35
S'JPA'
p36
ssS'Physics Letters A'
p37
(dp38
S'short'
p39
S'Phys. Lett. A'
p40
sS'shortest'
p41
S'PLA'
p42
ssS'Medical Image Analysis'
p43
(dp44
S'short'
p45
S'Med. Im. An.'
p46
sS'shortest'
p47
S'MIA'
p48
ssS'Journal of the Optical Society of America A'
p49
(dp50
S'short'
p51
S'J. Opt. Soc. Am. A'
p52
sS'shortest'
p53
S'JOSAA'
p54
ssS'Journal of Optics A: Pure and Applied Optics'
p55
(dp56
S'short'
p57
S'J. Opt. A'
p58
sS'shortest'
p59
S'JOA'
p60
ssS'The Journal of the Acoustical Society of America'
p61
(dp62
S'short'
p63
S'J. Acoust. Soc. Am.'
p64
sS'shortest'
p65
S'JASA'
p66
ssS'Europhysics Letters (EPL)'
p67
(dp68
S'short'
p69
S'Europh. Lett.'
p70
sS'shortest'
p71
S'EPL'
p72
ssS'Chaos: An Interdisciplinary Journal of Nonlinear Science'
p73
(dp74
S'short'
p75
S'Chaos'
p76
sS'shortest'
p77
S'Cha'
p78
ssS'New Journal of Physics'
p79
(dp80
S'short'
p81
S'New J. Phys.'
p82
sS'shortest'
p83
S'NJP'
p84
ssS'Chemical Physics Letters'
p85
(dp86
S'short'
p87
S'Chem. Phys. Lett.'
p88
sS'shortest'
p89
S'CPL'
p90
ssS'Nonlinearity'
p91
(dp92
S'short'
p93
S'Nonlin.'
p94
sS'shortest'
p95
S'NonLin'
p96
ssS'Chaos, Solitons {\\&} Fractals'
p97
(dp98
S'short'
p99
S'Chaos Soliton Frac.'
p100
sS'shortest'
p101
S'CSF'
p102
ssS'International Journal of Bifurcation and Chaos'
p103
(dp104
S'short'
p105
S'Int. J. Bifurcation Chaos'
p106
sS'shortest'
p107
S'IJBC'
p108
ssS'Journal of Physics A: Mathematical and General'
p109
(dp110
S'short'
p111
S'J. Phys. A'
p112
sS'shortest'
p113
S'JPA'
p114
ssS'Physica A: Statistical Mechanics and its Applications'
p115
(dp116
S'short'
p117
S'Physica A'
p118
sS'shortest'
p119
S'PyA'
p120
ssS'Physica D: Nonlinear Phenomena'
p121
(dp122
S'short'
p123
S'Physica D'
p124
sS'shortest'
p125
S'PD'
p126
ssS'Proceedings of the Royal Society A: Mathematical, Physical and Engineering Sciences'
p127
(dp128
S'short'
p129
S'Proc. R. Soc. A'
p130
sS'shortest'
p131
S'PRSA'
p132
ssS'Physics Reports'
p133
(dp134
S'short'
p135
S'Phys. Rep.'
p136
sS'shortest'
p137
S'PR'
p138
ssS'Acta Mathematica Academiae Scientiarum Hungaricae'
p139
(dp140
S'short'
p141
S'Act. Mat. Ac. Sc. Hun.'
p142
sS'shortest'
p143
S'AMASH'
p144
ssS'Applied Physics Letters'
p145
(dp146
S'short'
p147
S'Appl. Phys. Lett.'
p148
sS'shortest'
p149
S'APL'
p150
ssS'Physical Review Letters'
p151
(dp152
S'short'
p153
S'Phys. Rev. Lett.'
p154
sS'shortest'
p155
S'PRL'
p156
ssS'Annals of Physics'
p157
(dp158
S'short'
p159
S'Ann. Phys.'
p160
sS'shortest'
p161
S'AnnPhys'
p162
ssS'arXiv.org'
p163
(dp164
S'short'
p165
S'arXiv'
p166
sS'shortest'
p167
S'aXv'
p168
ss.