(dp0
S'Physical Review E'
p1
(dp2
S'short'
p3
S'Phys. Rev. E'
p4
sS'shortest'
p5
S'PRE'
p6
ssS'Scholarpedia'
p7
(dp8
S'short'
p9
S'Scholarp.'
p10
sS'shortest'
p11
S'ScP'
p12
ssS'Physical Review A'
p13
(dp14
S'short'
p15
S'Phys. Rev. A'
p16
sS'shortest'
p17
S'PRA'
p18
ssS'Reviews of Modern Physics'
p19
(dp20
S'short'
p21
S'Rev. Mod. Phys.'
p22
sS'shortest'
p23
S'RMP'
p24
ssS'Laser {\\&} Photonics Reviews'
p25
(dp26
S'short'
p27
S'Laser Photon. Rev.'
p28
sS'shortest'
p29
S'LPR'
p30
ssS'Journal of Physics A: Mathematical and Theoretical'
p31
(dp32
S'short'
p33
S'J. Phys. A'
p34
sS'shortest'
p35
S'JPA'
p36
ssS'Physics Letters A'
p37
(dp38
S'short'
p39
S'Phys. Lett. A'
p40
sS'shortest'
p41
S'PLA'
p42
ssS'Medical Image Analysis'
p43
(dp44
S'short'
p45
S'Med. Im. An.'
p46
sS'shortest'
p47
S'MIA'
p48
ssS'Nonlinearity'
p49
(dp50
S'short'
p51
S'Nonlin.'
p52
sS'shortest'
p53
S'NonLin'
p54
ssS'Nature'
p55
(dp56
S'short'
p57
S'Nature'
p58
sS'shortest'
p59
S'Nat'
p60
ssS'Journal of the Optical Society of America A'
p61
(dp62
S'short'
p63
S'J. Opt. Soc. Am. A'
p64
sS'shortest'
p65
S'JOSAA'
p66
ssS'Journal of Optics A: Pure and Applied Optics'
p67
(dp68
S'short'
p69
S'J. Opt. A'
p70
sS'shortest'
p71
S'JOA'
p72
ssS'The Journal of the Acoustical Society of America'
p73
(dp74
S'short'
p75
S'J. Acoust. Soc. Am.'
p76
sS'shortest'
p77
S'JASA'
p78
ssS'European Journal of Physics'
p79
(dp80
S'short'
p81
S'Europ. J. Phys.'
p82
sS'shortest'
p83
S'EJP'
p84
ssS'Europhysics Letters (EPL)'
p85
(dp86
S'short'
p87
S'Europh. Lett.'
p88
sS'shortest'
p89
S'EPL'
p90
ssS'Chaos: An Interdisciplinary Journal of Nonlinear Science'
p91
(dp92
S'short'
p93
S'Chaos'
p94
sS'shortest'
p95
S'Cha'
p96
ssS'Transactions of the American Mathematical Society'
p97
(dp98
S'short'
p99
S'Trans. Amer. Math. Soc.'
p100
sS'shortest'
p101
S'TAMS'
p102
ssS'New Journal of Physics'
p103
(dp104
S'short'
p105
S'New J. Phys.'
p106
sS'shortest'
p107
S'NJP'
p108
ssS'Chemical Physics Letters'
p109
(dp110
S'short'
p111
S'Chem. Phys. Lett.'
p112
sS'shortest'
p113
S'CPL'
p114
ssS'PLOS ONE'
p115
(dp116
S'short'
p117
S'PLoS ONE'
p118
sS'shortest'
p119
S'PLO'
p120
ssS'Chaos, Solitons {\\&} Fractals'
p121
(dp122
S'short'
p123
S'Chaos Soliton Frac.'
p124
sS'shortest'
p125
S'CSF'
p126
ssS'Science'
p127
(dp128
S'short'
p129
S'Science'
p130
sS'shortest'
p131
S'Sci'
p132
ssS'International Journal of Bifurcation and Chaos'
p133
(dp134
S'short'
p135
S'Int. J. Bifurcation Chaos'
p136
sS'shortest'
p137
S'IJBC'
p138
ssS'Nature Communications'
p139
(dp140
S'short'
p141
S'Nature Comm.'
p142
sS'shortest'
p143
S'NaC'
p144
ssS'Journal of Physics A: Mathematical and General'
p145
(dp146
S'short'
p147
S'J. Phys. A'
p148
sS'shortest'
p149
S'JPA'
p150
ssS'Physica A: Statistical Mechanics and its Applications'
p151
(dp152
S'short'
p153
S'Physica A'
p154
sS'shortest'
p155
S'PyA'
p156
ssS'Physica D: Nonlinear Phenomena'
p157
(dp158
S'short'
p159
S'Physica D'
p160
sS'shortest'
p161
S'PD'
p162
ssS'Proceedings of the Royal Society A: Mathematical, Physical and Engineering Sciences'
p163
(dp164
S'short'
p165
S'Proc. R. Soc. A'
p166
sS'shortest'
p167
S'PRSA'
p168
ssS'Physics Reports'
p169
(dp170
S'short'
p171
S'Phys. Rep.'
p172
sS'shortest'
p173
S'PR'
p174
ssS'Acta Mathematica Academiae Scientiarum Hungaricae'
p175
(dp176
S'short'
p177
S'Act. Mat. Ac. Sc. Hun.'
p178
sS'shortest'
p179
S'AMASH'
p180
ssS'Applied Physics Letters'
p181
(dp182
S'short'
p183
S'Appl. Phys. Lett.'
p184
sS'shortest'
p185
S'APL'
p186
ssS'Physical Review Letters'
p187
(dp188
S'short'
p189
S'Phys. Rev. Lett.'
p190
sS'shortest'
p191
S'PRL'
p192
ssS'Annals of Physics'
p193
(dp194
S'short'
p195
S'Ann. Phys.'
p196
sS'shortest'
p197
S'AnnPhys'
p198
ssS'arXiv.org'
p199
(dp200
S'short'
p201
S'arXiv'
p202
sS'shortest'
p203
S'aXv'
p204
ss.