(dp0
S'Physical Review E'
p1
(dp2
S'short'
p3
S'Phys. Rev. E'
p4
sS'shortest'
p5
S'PRE'
p6
ssS'Scholarpedia'
p7
(dp8
S'short'
p9
S'Scholarp.'
p10
sS'shortest'
p11
S'ScP'
p12
ssS'Physical Review A'
p13
(dp14
S'short'
p15
S'Phys. Rev. A'
p16
sS'shortest'
p17
S'PRA'
p18
ssS'Reviews of Modern Physics'
p19
(dp20
S'short'
p21
S'Rev. Mod. Phys.'
p22
sS'shortest'
p23
S'RMP'
p24
ssS'Laser {\\&} Photonics Reviews'
p25
(dp26
S'short'
p27
S'Laser Photon. Rev.'
p28
sS'shortest'
p29
S'LPR'
p30
ssS'Journal of Physics A: Mathematical and Theoretical'
p31
(dp32
S'short'
p33
S'J. Phys. A'
p34
sS'shortest'
p35
S'JPA'
p36
ssS'Physics Letters A'
p37
(dp38
S'short'
p39
S'Phys. Lett. A'
p40
sS'shortest'
p41
S'PLA'
p42
ssS'Journal of the Optical Society of America A'
p43
(dp44
S'short'
p45
S'J. Opt. Soc. Am. A'
p46
sS'shortest'
p47
S'JOSAA'
p48
ssS'Journal of Optics A: Pure and Applied Optics'
p49
(dp50
S'short'
p51
S'J. Opt. A'
p52
sS'shortest'
p53
S'JOA'
p54
ssS'The Journal of the Acoustical Society of America'
p55
(dp56
S'short'
p57
S'J. Acoust. Soc. Am.'
p58
sS'shortest'
p59
S'JASA'
p60
ssS'Chaos: An Interdisciplinary Journal of Nonlinear Science'
p61
(dp62
S'short'
p63
S'Chaos'
p64
sS'shortest'
p65
S'Cha'
p66
ssS'New Journal of Physics'
p67
(dp68
S'short'
p69
S'New J. Phys.'
p70
sS'shortest'
p71
S'NJP'
p72
ssS'Chemical Physics Letters'
p73
(dp74
S'short'
p75
S'Chem. Phys. Lett.'
p76
sS'shortest'
p77
S'CPL'
p78
ssS'Nonlinearity'
p79
(dp80
S'short'
p81
S'Nonlin.'
p82
sS'shortest'
p83
S'NonLin'
p84
ssS'Chaos, Solitons {\\&} Fractals'
p85
(dp86
S'short'
p87
S'Chaos Soliton Frac.'
p88
sS'shortest'
p89
S'CSF'
p90
ssS'International Journal of Bifurcation and Chaos'
p91
(dp92
S'short'
p93
S'Int. J. Bifurcation Chaos'
p94
sS'shortest'
p95
S'IJBC'
p96
ssS'Journal of Physics A: Mathematical and General'
p97
(dp98
S'short'
p99
S'J. Phys. A'
p100
sS'shortest'
p101
S'JPA'
p102
ssS'Physica A: Statistical Mechanics and its Applications'
p103
(dp104
S'short'
p105
S'Physica A'
p106
sS'shortest'
p107
S'PyA'
p108
ssS'Physica D: Nonlinear Phenomena'
p109
(dp110
S'short'
p111
S'Physica D'
p112
sS'shortest'
p113
S'PD'
p114
ssS'Proceedings of the Royal Society A: Mathematical, Physical and Engineering Sciences'
p115
(dp116
S'short'
p117
S'Proc. R. Soc. A'
p118
sS'shortest'
p119
S'PRSA'
p120
ssS'Physics Reports'
p121
(dp122
S'short'
p123
S'Phys. Rep.'
p124
sS'shortest'
p125
S'PR'
p126
ssS'Applied Physics Letters'
p127
(dp128
S'short'
p129
S'Appl. Phys. Lett.'
p130
sS'shortest'
p131
S'APL'
p132
ssS'Physical Review Letters'
p133
(dp134
S'short'
p135
S'Phys. Rev. Lett.'
p136
sS'shortest'
p137
S'PRL'
p138
ssS'Annals of Physics'
p139
(dp140
S'short'
p141
S'Ann. Phys.'
p142
sS'shortest'
p143
S'AnnPhys'
p144
ssS'arXiv.org'
p145
(dp146
S'short'
p147
S'arXiv'
p148
sS'shortest'
p149
S'aXv'
p150
ss.