(dp0
S'Physical Review E'
p1
(dp2
S'short'
p3
S'Phys. Rev. E'
p4
sS'shortest'
p5
S'PRE'
p6
ssS'Nonlinearity'
p7
(dp8
S'short'
p9
S'Nonlin.'
p10
sS'shortest'
p11
S'NonLin'
p12
ssS'Physical Review Letters'
p13
(dp14
S'short'
p15
S'PRL'
p16
sS'shortest'
p17
S'Phys. Rev. Lett.'
p18
ss.